target datalayout = "e-m:e-p270:32:32-p271:32:32-p272:64:64-i64:64-i128:128-f80:128-n8:16:32:64-S128"
target triple = "x86_64-pc-linux-gnu"

%"class.std::__cxx11::basic_string" = type { %"struct.std::__cxx11::basic_string<char>::_Alloc_hider", i64, %union.anon }
%"struct.std::__cxx11::basic_string<char>::_Alloc_hider" = type { ptr }
%union.anon = type { i64, [8 x i8] }
%"class.std::filesystem::__cxx11::path" = type { %"class.std::__cxx11::basic_string", %"struct.std::filesystem::__cxx11::path::_List" }
%"struct.std::filesystem::__cxx11::path::_List" = type { %"class.std::unique_ptr.34" }
%"class.std::unique_ptr.34" = type { %"struct.std::__uniq_ptr_data.35" }
%"struct.std::__uniq_ptr_data.35" = type { %"class.std::__uniq_ptr_impl.36" }
%"class.std::__uniq_ptr_impl.36" = type { %"class.std::tuple.37" }
%"class.std::tuple.37" = type { %"struct.std::_Tuple_impl.38" }
%"struct.std::_Tuple_impl.38" = type { %"struct.std::_Head_base.41" }
%"struct.std::_Head_base.41" = type { ptr }
%struct.t_symtab = type { i32, ptr }
%struct.t_symbuf = type { i32, ptr, ptr }

@.str.1 = private unnamed_addr constant [125 x i8] c"generated/home/dtcxzyw/WorkSpace/Projects/compilers/llvm-opt-benchmark/bench/gromacs/gromacs/src/gromacs/topology/symtab.cpp\00", align 1
@.str.13 = private unnamed_addr constant [29 x i8] c"symtab lookup \22%s\22 not found\00", align 1

; Function Attrs: mustprogress uwtable
define noundef i32 @_Z13lookup_symtabP8t_symtabPPc(ptr noundef %0, ptr noundef %1) #0 personality ptr @__gxx_personality_v0 {
  %3 = alloca i32, align 4
  %4 = alloca ptr, align 8
  %5 = alloca ptr, align 8
  %6 = alloca i32, align 4
  %7 = alloca ptr, align 8
  %8 = alloca i32, align 4
  %9 = alloca i32, align 4
  %10 = alloca %"class.std::filesystem::__cxx11::path", align 8
  %11 = alloca ptr, align 8
  %12 = alloca i32, align 4
  store ptr %0, ptr %4, align 8, !tbaa !282
  store ptr %1, ptr %5, align 8, !tbaa !145
  call void @llvm.lifetime.start.p0(i64 4, ptr %6) #18
  store i32 0, ptr %6, align 4, !tbaa !11
  call void @llvm.lifetime.start.p0(i64 8, ptr %7) #18
  %13 = load ptr, ptr %4, align 8, !tbaa !282
  %14 = getelementptr inbounds nuw %struct.t_symtab, ptr %13, i32 0, i32 1
  %15 = load ptr, ptr %14, align 8, !tbaa !284
  store ptr %15, ptr %7, align 8, !tbaa !287
  br label %16

16:                                               ; preds = %53, %2
  %17 = load ptr, ptr %7, align 8, !tbaa !287
  %18 = icmp ne ptr %17, null
  br i1 %18, label %19, label %54

19:                                               ; preds = %16
  call void @llvm.lifetime.start.p0(i64 4, ptr %8) #18
  %20 = load ptr, ptr %5, align 8, !tbaa !145
  %21 = load ptr, ptr %7, align 8, !tbaa !287
  %22 = getelementptr inbounds nuw %struct.t_symbuf, ptr %21, i32 0, i32 1
  %23 = load ptr, ptr %22, align 8, !tbaa !288
  %24 = ptrtoint ptr %20 to i64
  %25 = ptrtoint ptr %23 to i64
  %26 = sub i64 %24, %25
  %27 = sdiv exact i64 %26, 8
  %28 = trunc i64 %27 to i32
  store i32 %28, ptr %8, align 4, !tbaa !11
  %29 = load i32, ptr %8, align 4, !tbaa !11
  %30 = icmp sge i32 %29, 0
  br i1 %30, label %31, label %41

31:                                               ; preds = %19
  %32 = load i32, ptr %8, align 4, !tbaa !11
  %33 = load ptr, ptr %7, align 8, !tbaa !287
  %34 = getelementptr inbounds nuw %struct.t_symbuf, ptr %33, i32 0, i32 0
  %35 = load i32, ptr %34, align 8, !tbaa !290
  %36 = icmp slt i32 %32, %35
  br i1 %36, label %37, label %41

37:                                               ; preds = %31
  %38 = load i32, ptr %8, align 4, !tbaa !11
  %39 = load i32, ptr %6, align 4, !tbaa !11
  %40 = add nsw i32 %38, %39
  store i32 %40, ptr %3, align 4
  store i32 1, ptr %9, align 4
  br label %51

41:                                               ; preds = %31, %19
  %42 = load ptr, ptr %7, align 8, !tbaa !287
  %43 = getelementptr inbounds nuw %struct.t_symbuf, ptr %42, i32 0, i32 0
  %44 = load i32, ptr %43, align 8, !tbaa !290
  %45 = load i32, ptr %6, align 4, !tbaa !11
  %46 = add nsw i32 %45, %44
  store i32 %46, ptr %6, align 4, !tbaa !11
  %47 = load ptr, ptr %7, align 8, !tbaa !287
  %48 = getelementptr inbounds nuw %struct.t_symbuf, ptr %47, i32 0, i32 2
  %49 = load ptr, ptr %48, align 8, !tbaa !291
  store ptr %49, ptr %7, align 8, !tbaa !287
  br label %50

50:                                               ; preds = %41
  store i32 0, ptr %9, align 4
  br label %51

51:                                               ; preds = %50, %37
  call void @llvm.lifetime.end.p0(i64 4, ptr %8) #18
  %52 = load i32, ptr %9, align 4
  switch i32 %52, label %62 [
    i32 0, label %53
  ]

53:                                               ; preds = %51
  br label %16, !llvm.loop !292

54:                                               ; preds = %16
  call void @llvm.lifetime.start.p0(i64 40, ptr %10) #18
  call void @_ZNSt10filesystem7__cxx114pathC2IA125_cS1_EERKT_NS1_6formatE(ptr noundef nonnull align 8 dereferenceable(40) %10, ptr noundef nonnull align 1 dereferenceable(125) @.str.1, i8 noundef zeroext 2)
  %55 = load ptr, ptr %5, align 8, !tbaa !145
  %56 = load ptr, ptr %55, align 8, !tbaa !104
  invoke void (i32, ptr, i32, ptr, ...) @_Z9gmx_fataliRKNSt10filesystem7__cxx114pathEiPKcz(i32 noundef 0, ptr noundef nonnull align 8 dereferenceable(40) %10, i32 noundef 234, ptr noundef @.str.13, ptr noundef %56) #20
          to label %57 unwind label %58

57:                                               ; preds = %54
  unreachable

58:                                               ; preds = %54
  %59 = landingpad { ptr, i32 }
          cleanup
  %60 = extractvalue { ptr, i32 } %59, 0
  store ptr %60, ptr %11, align 8
  %61 = extractvalue { ptr, i32 } %59, 1
  store i32 %61, ptr %12, align 4
  call void @_ZNSt10filesystem7__cxx114pathD2Ev(ptr noundef nonnull align 8 dereferenceable(40) %10) #18
  call void @llvm.lifetime.end.p0(i64 40, ptr %10) #18
  call void @llvm.lifetime.end.p0(i64 8, ptr %7) #18
  call void @llvm.lifetime.end.p0(i64 4, ptr %6) #18
  br label %64

62:                                               ; preds = %51
  call void @llvm.lifetime.end.p0(i64 8, ptr %7) #18
  call void @llvm.lifetime.end.p0(i64 4, ptr %6) #18
  %63 = load i32, ptr %3, align 4
  ret i32 %63

64:                                               ; preds = %58
  %65 = load ptr, ptr %11, align 8
  %66 = load i32, ptr %12, align 4
  %67 = insertvalue { ptr, i32 } poison, ptr %65, 0
  %68 = insertvalue { ptr, i32 } %67, i32 %66, 1
  resume { ptr, i32 } %68
}