; Function Attrs: mustprogress uwtable
define noundef i32 @_Z13lookup_symtabP8t_symtabPPc(ptr noundef readonly captures(none) %0, ptr noundef %1) local_unnamed_addr #0 personality ptr @__gxx_personality_v0 {
  %3 = alloca %"class.std::filesystem::__cxx11::path", align 8
  %4 = getelementptr inbounds nuw i8, ptr %0, i64 8
  %.01928 = load ptr, ptr %4, align 8, !tbaa !110
  %.not29 = icmp eq ptr %.01928, null
  br i1 %.not29, label %._crit_edge, label %.lr.ph

.lr.ph:                                           ; preds = %2
  %5 = ptrtoint ptr %1 to i64
  br label %6

6:                                                ; preds = %.lr.ph, %15
  %.01931 = phi ptr [ %.01928, %.lr.ph ], [ %.019, %15 ]
  %.01630 = phi i32 [ 0, %.lr.ph ], [ %16, %15 ]
  %7 = getelementptr inbounds nuw i8, ptr %.01931, i64 8
  %8 = load ptr, ptr %7, align 8, !tbaa !106
  %9 = ptrtoint ptr %8 to i64
  %10 = sub i64 %5, %9
  %11 = lshr exact i64 %10, 3
  %12 = trunc i64 %11 to i32
  %13 = icmp sgt i32 %12, -1
  %.pre = load i32, ptr %.01931, align 8, !tbaa !101
  %14 = icmp sgt i32 %.pre, %12
  %or.cond = select i1 %13, i1 %14, i1 false
  br i1 %or.cond, label %22, label %15

15:                                               ; preds = %6
  %16 = add nsw i32 %.pre, %.01630
  %17 = getelementptr inbounds nuw i8, ptr %.01931, i64 16
  %.019 = load ptr, ptr %17, align 8, !tbaa !110
  %.not = icmp eq ptr %.019, null
  br i1 %.not, label %._crit_edge, label %6, !llvm.loop !111

._crit_edge:                                      ; preds = %15, %2
  call void @llvm.lifetime.start.p0(i64 40, ptr nonnull %3) #25
  call void @_ZNSt10filesystem7__cxx114pathC2IA125_cS1_EERKT_NS1_6formatE(ptr noundef nonnull align 8 dereferenceable(40) %3, ptr noundef nonnull align 1 dereferenceable(125) @.str.1, i8 noundef zeroext 2)
  %18 = load ptr, ptr %1, align 8, !tbaa !51
  invoke void (i32, ptr, i32, ptr, ...) @_Z9gmx_fataliRKNSt10filesystem7__cxx114pathEiPKcz(i32 noundef 0, ptr noundef nonnull align 8 dereferenceable(40) %3, i32 noundef 234, ptr noundef nonnull @.str.13, ptr noundef %18) #29
          to label %19 unwind label %20

19:                                               ; preds = %._crit_edge
  unreachable

20:                                               ; preds = %._crit_edge
  %21 = landingpad { ptr, i32 }
          cleanup
  call void @_ZNSt10filesystem7__cxx114pathD2Ev(ptr noundef nonnull align 8 dereferenceable(40) %3) #25
  call void @llvm.lifetime.end.p0(i64 40, ptr nonnull %3) #25
  resume { ptr, i32 } %21

22:                                               ; preds = %6
  %23 = add nsw i32 %.01630, %12
  ret i32 %23
}